target datalayout = "e-m:e-p270:32:32-p271:32:32-p272:64:64-i64:64-i128:128-f80:128-n8:16:32:64-S128"
target triple = "x86_64-pc-linux-gnu"

@register_rtse_oid_dissector_handle.ros_handle = internal global ptr null, align 8
@.str = private unnamed_addr constant [4 x i8] c"ros\00", align 1
@rtse_handle = internal global ptr null, align 8
@.str.1 = private unnamed_addr constant [9 x i8] c"rtse.oid\00", align 1

; Function Attrs: null_pointer_is_valid sspstrong uwtable
define hidden void @register_rtse_oid_dissector_handle(ptr noundef %0, ptr noundef %1, i32 noundef %2, ptr noundef %3, i1 noundef zeroext %4) #0 {
  %6 = alloca ptr, align 8
  %7 = alloca ptr, align 8
  %8 = alloca i32, align 4
  %9 = alloca ptr, align 8
  %10 = alloca i8, align 1
  store ptr %0, ptr %6, align 8
  store ptr %1, ptr %7, align 8
  store i32 %2, ptr %8, align 4
  store ptr %3, ptr %9, align 8
  %11 = zext i1 %4 to i8
  store i8 %11, ptr %10, align 1
  %12 = load ptr, ptr @register_rtse_oid_dissector_handle.ros_handle, align 8
  %13 = icmp eq ptr %12, null
  br i1 %13, label %14, label %16

14:                                               ; preds = %5
  %15 = call ptr @find_dissector(ptr noundef @.str)
  store ptr %15, ptr @register_rtse_oid_dissector_handle.ros_handle, align 8
  br label %16

16:                                               ; preds = %14, %5
  %17 = load ptr, ptr %6, align 8
  %18 = load ptr, ptr @rtse_handle, align 8
  %19 = load i32, ptr %8, align 4
  %20 = load ptr, ptr %9, align 8
  call void @register_ber_oid_dissector_handle(ptr noundef %17, ptr noundef %18, i32 noundef %19, ptr noundef %20)
  %21 = load i8, ptr %10, align 1, !range !6, !noundef !7
  %22 = trunc i8 %21 to i1
  br i1 %22, label %23, label %34

23:                                               ; preds = %16
  %24 = load ptr, ptr %6, align 8
  %25 = load ptr, ptr @register_rtse_oid_dissector_handle.ros_handle, align 8
  call void @dissector_add_string(ptr noundef @.str.1, ptr noundef %24, ptr noundef %25)
  %26 = load ptr, ptr %7, align 8
  %27 = icmp ne ptr %26, null
  br i1 %27, label %28, label %33

28:                                               ; preds = %23
  %29 = load ptr, ptr %6, align 8
  %30 = load ptr, ptr %7, align 8
  %31 = load i32, ptr %8, align 4
  %32 = load ptr, ptr %9, align 8
  call void @register_ros_oid_dissector_handle(ptr noundef %29, ptr noundef %30, i32 noundef %31, ptr noundef %32, i1 noundef zeroext true)
  br label %33

33:                                               ; preds = %28, %23
  br label %37

34:                                               ; preds = %16
  %35 = load ptr, ptr %6, align 8
  %36 = load ptr, ptr %7, align 8
  call void @dissector_add_string(ptr noundef @.str.1, ptr noundef %35, ptr noundef %36)
  br label %37

37:                                               ; preds = %34, %33
  ret void
}