; Function Attrs: null_pointer_is_valid sspstrong uwtable
define hidden void @register_rtse_oid_dissector_handle(ptr noundef %0, ptr noundef %1, i32 noundef %2, ptr noundef %3, i1 noundef zeroext %4) local_unnamed_addr #0 {
  %6 = load ptr, ptr @register_rtse_oid_dissector_handle.ros_handle, align 8
  %7 = icmp eq ptr %6, null
  br i1 %7, label %8, label %10

8:                                                ; preds = %5
  %9 = tail call ptr @find_dissector(ptr noundef nonnull @.str)
  store ptr %9, ptr @register_rtse_oid_dissector_handle.ros_handle, align 8
  br label %10

10:                                               ; preds = %8, %5
  %11 = load ptr, ptr @rtse_handle, align 8
  tail call void @register_ber_oid_dissector_handle(ptr noundef %0, ptr noundef %11, i32 noundef %2, ptr noundef %3)
  br i1 %4, label %12, label %15

12:                                               ; preds = %10
  %13 = load ptr, ptr @register_rtse_oid_dissector_handle.ros_handle, align 8
  tail call void @dissector_add_string(ptr noundef nonnull @.str.1, ptr noundef %0, ptr noundef %13)
  %.not = icmp eq ptr %1, null
  br i1 %.not, label %16, label %14

14:                                               ; preds = %12
  tail call void @register_ros_oid_dissector_handle(ptr noundef %0, ptr noundef nonnull %1, i32 noundef %2, ptr noundef %3, i1 noundef zeroext true)
  br label %16

15:                                               ; preds = %10
  tail call void @dissector_add_string(ptr noundef nonnull @.str.1, ptr noundef %0, ptr noundef %1)
  br label %16

16:                                               ; preds = %12, %14, %15
  ret void
}